; Function Attrs: mustprogress uwtable
define internal fastcc void @_ZN3ue2L22checkEmbeddedEndAnchorERKNS_12PositionInfoERKSt6vectorIS0_SaIS0_EE(i32 %from.4.val, ptr readonly %firsts.0.val, ptr readnone %firsts.8.val) unnamed_addr #3 personality ptr @__gxx_personality_v0 {
entry:
  %agg.tmp = alloca %"class.std::__cxx11::basic_string", align 8
  %ref.tmp = alloca %"class.std::allocator.21", align 1
  %and = and i32 %from.4.val, 8388608
  %tobool.not = icmp eq i32 %and, 0
  %cmp.i.not7 = icmp eq ptr %firsts.0.val, %firsts.8.val
  %or.cond = select i1 %tobool.not, i1 true, i1 %cmp.i.not7
  br i1 %or.cond, label %for.end, label %for.body

for.cond:                                         ; preds = %for.body
  %incdec.ptr.i = getelementptr inbounds i8, ptr %__begin1.sroa.0.08, i64 8
  %cmp.i.not = icmp eq ptr %incdec.ptr.i, %firsts.8.val
  br i1 %cmp.i.not, label %for.end, label %for.body

for.body:                                         ; preds = %entry, %for.cond
  %__begin1.sroa.0.08 = phi ptr [ %incdec.ptr.i, %for.cond ], [ %firsts.0.val, %entry ]
  %0 = load i32, ptr %__begin1.sroa.0.08, align 4
  %cmp.not = icmp eq i32 %0, -2
  br i1 %cmp.not, label %for.cond, label %if.then5

if.then5:                                         ; preds = %for.body
  %exception = tail call ptr @__cxa_allocate_exception(i64 48) #24
  call void @_ZNSaIcEC1Ev(ptr noundef nonnull align 1 dereferenceable(1) %ref.tmp) #24
  invoke void @_ZNSt7__cxx1112basic_stringIcSt11char_traitsIcESaIcEEC2IS3_EEPKcRKS3_(ptr noundef nonnull align 8 dereferenceable(32) %agg.tmp, ptr noundef nonnull @.str, ptr noundef nonnull align 1 dereferenceable(1) %ref.tmp)
          to label %invoke.cont unwind label %ehcleanup.thread

invoke.cont:                                      ; preds = %if.then5
  invoke void @_ZN3ue212CompileErrorC2ERKNSt7__cxx1112basic_stringIcSt11char_traitsIcESaIcEEE(ptr noundef nonnull align 8 dereferenceable(48) %exception, ptr noundef nonnull align 8 dereferenceable(32) %agg.tmp)
          to label %invoke.cont7 unwind label %ehcleanup

invoke.cont7:                                     ; preds = %invoke.cont
  store ptr getelementptr inbounds ({ [4 x ptr] }, ptr @_ZTVN3ue210ParseErrorE, i64 0, i32 0, i64 2), ptr %exception, align 8
  invoke void @__cxa_throw(ptr nonnull %exception, ptr nonnull @_ZTIN3ue210ParseErrorE, ptr nonnull @_ZN3ue210ParseErrorD1Ev) #25
          to label %unreachable unwind label %ehcleanup

ehcleanup.thread:                                 ; preds = %if.then5
  %1 = landingpad { ptr, i32 }
          cleanup
  call void @_ZNSaIcED1Ev(ptr noundef nonnull align 1 dereferenceable(1) %ref.tmp) #24
  br label %cleanup.action

ehcleanup:                                        ; preds = %invoke.cont7, %invoke.cont
  %cleanup.isactive.0 = phi i1 [ false, %invoke.cont7 ], [ true, %invoke.cont ]
  %2 = landingpad { ptr, i32 }
          cleanup
  call void @_ZNSt7__cxx1112basic_stringIcSt11char_traitsIcESaIcEED1Ev(ptr noundef nonnull align 8 dereferenceable(32) %agg.tmp) #24
  call void @_ZNSaIcED1Ev(ptr noundef nonnull align 1 dereferenceable(1) %ref.tmp) #24
  br i1 %cleanup.isactive.0, label %cleanup.action, label %eh.resume

cleanup.action:                                   ; preds = %ehcleanup.thread, %ehcleanup
  %.pn6 = phi { ptr, i32 } [ %1, %ehcleanup.thread ], [ %2, %ehcleanup ]
  call void @__cxa_free_exception(ptr %exception) #24
  br label %eh.resume

for.end:                                          ; preds = %for.cond, %entry
  ret void

eh.resume:                                        ; preds = %ehcleanup, %cleanup.action
  %.pn5 = phi { ptr, i32 } [ %2, %ehcleanup ], [ %.pn6, %cleanup.action ]
  resume { ptr, i32 } %.pn5

unreachable:                                      ; preds = %invoke.cont7
  unreachable
}